(dp1
S'failed'
p2
(lp3
S'131'
p4
aS'132'
p5
asS'source_names'
p6
(lp7
S'tests/testNPSimulation.py'
p8
aS'.'
aS'131'
p9
aS'132'
p10
asS'ids'
p11
(dp12
I1
(S'/Users/faiyamrahman/programming/Python/beatthestreak/beatthestreak/tests/testNPSimulation.py'
S'beatthestreak.tests.testNPSimulation'
p13
S'TestNPSimulation.test_bat_years_ms'
tp14
sI2
(S'/Users/faiyamrahman/programming/Python/beatthestreak/beatthestreak/tests/testNPSimulation.py'
g13
S'TestNPSimulation.test_calc_and_get_min_bat_ave'
tp15
sI3
(S'/Users/faiyamrahman/programming/Python/beatthestreak/beatthestreak/tests/testNPSimulation.py'
g13
S'TestNPSimulation.test_get_year'
tp16
sI4
(S'/Users/faiyamrahman/programming/Python/beatthestreak/beatthestreak/tests/testNPSimulation.py'
g13
S'TestNPSimulation.test_mass_simulate'
tp17
sI5
(S'/Users/faiyamrahman/programming/Python/beatthestreak/beatthestreak/tests/testNPSimulation.py'
g13
S'TestNPSimulation.test_setup'
tp18
sI6
(S'/Users/faiyamrahman/programming/Python/beatthestreak/beatthestreak/tests/testNPSimulation.py'
g13
S'TestNPSimulation.test_sim_next_day_with_double_down'
tp19
sI7
(S'/Users/faiyamrahman/programming/Python/beatthestreak/beatthestreak/tests/testNPSimulation.py'
g13
S'TestNPSimulation.test_sim_next_day_without_double_down'
tp20
sI8
(S'/Users/faiyamrahman/programming/Python/beatthestreak/beatthestreak/tests/testNPSimulation.py'
g13
S'TestNPSimulation.test_simulate'
tp21
sI9
(S'/Users/faiyamrahman/programming/Python/beatthestreak/beatthestreak/tests/testNPSimulation.py'
g13
S'TestNPSimulation.test_start_date_in_init'
tp22
sI10
(S'/Users/faiyamrahman/programming/Python/beatthestreak/beatthestreak/tests/testNPSimulation.py'
S'beatthestreak.tests.testNPSimulation'
Ntp23
sI11
(S'/Users/faiyamrahman/programming/Python/beatthestreak/beatthestreak/tests/testBot.py'
S'beatthestreak.tests.testBot'
p24
S'TestBot.test_activate_mulligan_and_get_mulligan_status'
tp25
sI12
(S'/Users/faiyamrahman/programming/Python/beatthestreak/beatthestreak/tests/testBot.py'
g24
S'TestBot.test_bot_equality'
tp26
sI13
(S'/Users/faiyamrahman/programming/Python/beatthestreak/beatthestreak/tests/testBot.py'
g24
S'TestBot.test_get_index'
tp27
sI14
(S'/Users/faiyamrahman/programming/Python/beatthestreak/beatthestreak/tests/testBot.py'
g24
S'TestBot.test_incr_streak_length_and_get_streak_length'
tp28
sI15
(S'/Users/faiyamrahman/programming/Python/beatthestreak/beatthestreak/tests/testBot.py'
g24
S'TestBot.test_update_history_copy'
tp29
sI16
(S'/Users/faiyamrahman/programming/Python/beatthestreak/beatthestreak/tests/testBot.py'
g24
S'TestBot.test_update_history_double_down_no_mulligan'
tp30
sI17
(S'/Users/faiyamrahman/programming/Python/beatthestreak/beatthestreak/tests/testBot.py'
g24
S'TestBot.test_update_history_double_down_with_mulligan'
tp31
sI18
(S'/Users/faiyamrahman/programming/Python/beatthestreak/beatthestreak/tests/testBot.py'
g24
S'TestBot.test_update_history_single_down_no_mulligan'
tp32
sI19
(S'/Users/faiyamrahman/programming/Python/beatthestreak/beatthestreak/tests/testBot.py'
g24
S'TestBot.test_update_history_single_down_with_mulligan'
tp33
sI20
(S'/Users/faiyamrahman/programming/Python/beatthestreak/beatthestreak/tests/testCResearcher.py'
S'beatthestreak.tests.testCResearcher'
S'TestCResearcher.test_c_did_get_hit'
tp34
sI21
(S'/Users/faiyamrahman/programming/Python/beatthestreak/beatthestreak/tests/testFilePath.py'
S'beatthestreak.tests.testFilePath'
p35
S'TestFilepath.test_get_lahman_file'
tp36
sI22
(S'/Users/faiyamrahman/programming/Python/beatthestreak/beatthestreak/tests/testFilePath.py'
g35
S'TestFilepath.test_get_mass_results_file'
tp37
sI23
(S'/Users/faiyamrahman/programming/Python/beatthestreak/beatthestreak/tests/testFilePath.py'
g35
S'TestFilepath.test_get_results_folder'
tp38
sI24
(S'/Users/faiyamrahman/programming/Python/beatthestreak/beatthestreak/tests/testFilePath.py'
g35
S'TestFilepath.test_get_retrosheet_file'
tp39
sI25
(S'/Users/faiyamrahman/programming/Python/beatthestreak/beatthestreak/tests/testFilePath.py'
g35
S'TestFilepath.test_get_retrosheet_folder'
tp40
sI26
(S'/Users/faiyamrahman/programming/Python/beatthestreak/beatthestreak/tests/testFilePath.py'
g35
S'TestFilepath.test_get_root'
tp41
sI27
(S'/Users/faiyamrahman/programming/Python/beatthestreak/beatthestreak/tests/testFilePath.py'
g35
S'TestFilepath.test_results_file'
tp42
sI28
(S'/Users/faiyamrahman/programming/Python/beatthestreak/beatthestreak/tests/testNPReporter.py'
S'beatthestreak.tests.testNPReporter'
S'testNPReporter.test__calc_unique_bots'
tp43
sI29
(S'/Users/faiyamrahman/programming/Python/beatthestreak/beatthestreak/tests/testPlayer.py'
S'beatthestreak.tests.testPlayer'
p44
S'testPlayer.test__repr__and__str__'
tp45
sI30
(S'/Users/faiyamrahman/programming/Python/beatthestreak/beatthestreak/tests/testPlayer.py'
g44
S'testPlayer.test_eq__'
tp46
sI31
(S'/Users/faiyamrahman/programming/Python/beatthestreak/beatthestreak/tests/testPlayer.py'
g44
S'testPlayer.test_get_and_set_lahman_id'
tp47
sI32
(S'/Users/faiyamrahman/programming/Python/beatthestreak/beatthestreak/tests/testPlayer.py'
g44
S'testPlayer.test_get_and_set_retrosheet_id_and_init'
tp48
sI33
(S'/Users/faiyamrahman/programming/Python/beatthestreak/beatthestreak/tests/testPlayer.py'
g44
S'testPlayer.test_get_bat_ave'
tp49
sI34
(S'/Users/faiyamrahman/programming/Python/beatthestreak/beatthestreak/tests/testPlayer.py'
g44
S'testPlayer.test_get_name'
tp50
sI35
(S'/Users/faiyamrahman/programming/Python/beatthestreak/beatthestreak/tests/testResearcher.py'
S'beatthestreak.tests.testResearcher'
p51
S'TestResearcher.test_boxscore_buffer'
tp52
sI36
(S'/Users/faiyamrahman/programming/Python/beatthestreak/beatthestreak/tests/testResearcher.py'
g51
S'TestResearcher.test_check_date'
tp53
sI37
(S'/Users/faiyamrahman/programming/Python/beatthestreak/beatthestreak/tests/testResearcher.py'
g51
S'TestResearcher.test_did_get_hit'
tp54
sI38
(S'/Users/faiyamrahman/programming/Python/beatthestreak/beatthestreak/tests/testResearcher.py'
g51
S'TestResearcher.test_did_start'
tp55
sI39
(S'/Users/faiyamrahman/programming/Python/beatthestreak/beatthestreak/tests/testResearcher.py'
g51
S'TestResearcher.test_find_home_team'
tp56
sI40
(S'/Users/faiyamrahman/programming/Python/beatthestreak/beatthestreak/tests/testResearcher.py'
g51
S'TestResearcher.test_get_closing_day'
tp57
sI41
(S'/Users/faiyamrahman/programming/Python/beatthestreak/beatthestreak/tests/testResearcher.py'
g51
S'TestResearcher.test_get_hit_info'
tp58
sI42
(S'/Users/faiyamrahman/programming/Python/beatthestreak/beatthestreak/tests/testResearcher.py'
g51
S'TestResearcher.test_get_opening_day'
tp59
sI43
(S'/Users/faiyamrahman/programming/Python/beatthestreak/beatthestreak/tests/testResearcher.py'
g51
S'TestResearcher.test_get_participants_superset'
tp60
sI44
(S'/Users/faiyamrahman/programming/Python/beatthestreak/beatthestreak/tests/testResearcher.py'
g51
S'TestResearcher.test_get_sus_Games_dict'
tp61
sI45
(S'/Users/faiyamrahman/programming/Python/beatthestreak/beatthestreak/tests/testResearcher.py'
g51
S'TestResearcher.test_is_game_suspended'
tp62
sI46
(S'/Users/faiyamrahman/programming/Python/beatthestreak/beatthestreak/tests/testResearcher.py'
g51
S'TestResearcher.test_is_suspended_game_valid'
tp63
sI47
(S'/Users/faiyamrahman/programming/Python/beatthestreak/beatthestreak/tests/testResearcher.py'
g51
S'TestResearcher.test_list_of_games_buffer'
tp64
sI48
(S'/Users/faiyamrahman/programming/Python/beatthestreak/beatthestreak/tests/testResearcher.py'
g51
S'TestResearcher.test_name_from_lahman_id'
tp65
sI49
(S'/Users/faiyamrahman/programming/Python/beatthestreak/beatthestreak/tests/testResearcher.py'
g51
S'TestResearcher.test_num_at_bats'
tp66
sI50
(S'/Users/faiyamrahman/programming/Python/beatthestreak/beatthestreak/tests/testResearcher.py'
g51
S'TestResearcher.test_num_plate_appearances'
tp67
sI51
(S'/Users/faiyamrahman/programming/Python/beatthestreak/beatthestreak/tests/testResearcher.py'
g51
S'TestResearcher.test_player_info_buffer'
tp68
sI52
(S'/Users/faiyamrahman/programming/Python/beatthestreak/beatthestreak/tests/testRetrosheet.py'
S'beatthestreak.tests.testRetrosheet'
p69
S'TestRetrosheet.test_clean_used_files'
tp70
sI53
(S'/Users/faiyamrahman/programming/Python/beatthestreak/beatthestreak/tests/testRetrosheet.py'
g69
S'TestRetrosheet.test_download'
tp71
sI54
(S'/Users/faiyamrahman/programming/Python/beatthestreak/beatthestreak/tests/testRetrosheet.py'
g69
S'TestRetrosheet.test_gen_boxscores'
tp72
sI55
(S'/Users/faiyamrahman/programming/Python/beatthestreak/beatthestreak/tests/testRetrosheet.py'
g69
S'TestRetrosheet.test_gen_team_abbrevs'
tp73
sI56
(S'/Users/faiyamrahman/programming/Python/beatthestreak/beatthestreak/tests/testRetrosheet.py'
g69
S'TestRetrosheet.test_unzip'
tp74
sI57
(S'/Users/faiyamrahman/programming/Python/beatthestreak/beatthestreak/tests/testUtilities.py'
S'beatthestreak.tests.testUtilities'
p75
S'TestUtilities.test_clean_retrosheet_files'
tp76
sI58
(S'/Users/faiyamrahman/programming/Python/beatthestreak/beatthestreak/tests/testUtilities.py'
g75
S'TestUtilities.test_convert_date'
tp77
sI59
(S'/Users/faiyamrahman/programming/Python/beatthestreak/beatthestreak/tests/testUtilities.py'
g75
S'TestUtilities.test_ensure_boxscore_files_exist'
tp78
sI60
(S'/Users/faiyamrahman/programming/Python/beatthestreak/beatthestreak/tests/testUtilities.py'
g75
S'TestUtilities.test_ensure_gamelog_files_exist'
tp79
sI61
(S'/Users/faiyamrahman/programming/Python/beatthestreak/beatthestreak/tests/testCResearcher.py'
S'beatthestreak.tests.testCResearcher'
S'TestCResearcher.test_c_cget_hit_info'
tp80
sI62
(S'/Users/faiyamrahman/programming/Python/beatthestreak/beatthestreak/tests/testFilePath.py'
S'beatthestreak.tests.testFilePath'
S'TestFilepath.test_get_player_hit_info_csv_file'
tp81
sI63
(S'/Users/faiyamrahman/programming/Python/beatthestreak/beatthestreak/tests/testNPReporter.py'
S'beatthestreak.tests.testNPReporter'
S'testNPReporter.test_calc_unique_bots'
tp82
sI64
(S'/Users/faiyamrahman/programming/Python/beatthestreak/beatthestreak/tests/testNPSimulation.py'
S'beatthestreak.tests.testNPSimulation'
S'TestNPSimulation.test__get_min_pa_range'
tp83
sI65
(S'/Users/faiyamrahman/programming/Python/beatthestreak/beatthestreak/tests/testResearcher.py'
S'beatthestreak.tests.testResearcher'
p84
S'TestResearcher.test_create_player_hit_info_csv'
tp85
sI66
(S'/Users/faiyamrahman/programming/Python/beatthestreak/beatthestreak/tests/testResearcher.py'
g84
S'TestResearcher.test_get_participants_superset_buffer'
tp86
sI67
(S'/Users/Dima/faiProgramming/Python/beatthestreak2/beatthestreak/beatthestreak/tests/testBot.py'
S'beatthestreak.tests.testBot'
p87
S'TestBot.test_activate_mulligan_and_get_mulligan_status'
tp88
sI68
(S'/Users/Dima/faiProgramming/Python/beatthestreak2/beatthestreak/beatthestreak/tests/testBot.py'
g87
S'TestBot.test_bot_equality'
tp89
sI69
(S'/Users/Dima/faiProgramming/Python/beatthestreak2/beatthestreak/beatthestreak/tests/testBot.py'
g87
S'TestBot.test_get_index'
tp90
sI70
(S'/Users/Dima/faiProgramming/Python/beatthestreak2/beatthestreak/beatthestreak/tests/testBot.py'
g87
S'TestBot.test_incr_streak_length_and_get_streak_length'
tp91
sI71
(S'/Users/Dima/faiProgramming/Python/beatthestreak2/beatthestreak/beatthestreak/tests/testBot.py'
g87
S'TestBot.test_update_history_double_down_no_mulligan'
tp92
sI72
(S'/Users/Dima/faiProgramming/Python/beatthestreak2/beatthestreak/beatthestreak/tests/testBot.py'
g87
S'TestBot.test_update_history_double_down_with_mulligan'
tp93
sI73
(S'/Users/Dima/faiProgramming/Python/beatthestreak2/beatthestreak/beatthestreak/tests/testBot.py'
g87
S'TestBot.test_update_history_single_down_no_mulligan'
tp94
sI74
(S'/Users/Dima/faiProgramming/Python/beatthestreak2/beatthestreak/beatthestreak/tests/testBot.py'
g87
S'TestBot.test_update_history_single_down_with_mulligan'
tp95
sI75
(S'/Users/Dima/faiProgramming/Python/beatthestreak2/beatthestreak/beatthestreak/tests/testCResearcher.py'
S'beatthestreak.tests.testCResearcher'
p96
S'TestCResearcher.test_c_cget_hit_info'
tp97
sI76
(S'/Users/Dima/faiProgramming/Python/beatthestreak2/beatthestreak/beatthestreak/tests/testCResearcher.py'
g96
S'TestCResearcher.test_c_did_get_hit'
tp98
sI77
(S'/Users/Dima/faiProgramming/Python/beatthestreak2/beatthestreak/beatthestreak/tests/testCResearcher.py'
g96
S'TestCResearcher.test_did_start'
tp99
sI78
(S'/Users/Dima/faiProgramming/Python/beatthestreak2/beatthestreak/beatthestreak/tests/testFilePath.py'
S'beatthestreak.tests.testFilePath'
p100
S'TestFilepath.test_get_lahman_file'
tp101
sI79
(S'/Users/Dima/faiProgramming/Python/beatthestreak2/beatthestreak/beatthestreak/tests/testFilePath.py'
g100
S'TestFilepath.test_get_mass_results_file'
tp102
sI80
(S'/Users/Dima/faiProgramming/Python/beatthestreak2/beatthestreak/beatthestreak/tests/testFilePath.py'
g100
S'TestFilepath.test_get_player_hit_info_csv_file'
tp103
sI81
(S'/Users/Dima/faiProgramming/Python/beatthestreak2/beatthestreak/beatthestreak/tests/testFilePath.py'
g100
S'TestFilepath.test_get_results_folder'
tp104
sI82
(S'/Users/Dima/faiProgramming/Python/beatthestreak2/beatthestreak/beatthestreak/tests/testFilePath.py'
g100
S'TestFilepath.test_get_retrosheet_file'
tp105
sI83
(S'/Users/Dima/faiProgramming/Python/beatthestreak2/beatthestreak/beatthestreak/tests/testFilePath.py'
g100
S'TestFilepath.test_get_retrosheet_folder'
tp106
sI84
(S'/Users/Dima/faiProgramming/Python/beatthestreak2/beatthestreak/beatthestreak/tests/testFilePath.py'
g100
S'TestFilepath.test_get_root'
tp107
sI85
(S'/Users/Dima/faiProgramming/Python/beatthestreak2/beatthestreak/beatthestreak/tests/testFilePath.py'
g100
S'TestFilepath.test_results_file'
tp108
sI86
(S'/Users/Dima/faiProgramming/Python/beatthestreak2/beatthestreak/beatthestreak/tests/testNPReporter.py'
S'beatthestreak.tests.testNPReporter'
S'testNPReporter.test_calc_unique_bots'
tp109
sI87
(S'/Users/Dima/faiProgramming/Python/beatthestreak2/beatthestreak/beatthestreak/tests/testNPSimulation.py'
S'beatthestreak.tests.testNPSimulation'
p110
S'TestNPSimulation.test__get_min_pa_range'
tp111
sI88
(S'/Users/Dima/faiProgramming/Python/beatthestreak2/beatthestreak/beatthestreak/tests/testNPSimulation.py'
g110
S'TestNPSimulation.test_bat_years_ms'
tp112
sI89
(S'/Users/Dima/faiProgramming/Python/beatthestreak2/beatthestreak/beatthestreak/tests/testNPSimulation.py'
g110
S'TestNPSimulation.test_calc_and_get_min_bat_ave'
tp113
sI90
(S'/Users/Dima/faiProgramming/Python/beatthestreak2/beatthestreak/beatthestreak/tests/testNPSimulation.py'
g110
S'TestNPSimulation.test_get_year'
tp114
sI91
(S'/Users/Dima/faiProgramming/Python/beatthestreak2/beatthestreak/beatthestreak/tests/testNPSimulation.py'
g110
S'TestNPSimulation.test_mass_simulate'
tp115
sI92
(S'/Users/Dima/faiProgramming/Python/beatthestreak2/beatthestreak/beatthestreak/tests/testNPSimulation.py'
g110
S'TestNPSimulation.test_setup'
tp116
sI93
(S'/Users/Dima/faiProgramming/Python/beatthestreak2/beatthestreak/beatthestreak/tests/testNPSimulation.py'
g110
S'TestNPSimulation.test_sim_next_day_with_double_down'
tp117
sI94
(S'/Users/Dima/faiProgramming/Python/beatthestreak2/beatthestreak/beatthestreak/tests/testNPSimulation.py'
g110
S'TestNPSimulation.test_sim_next_day_without_double_down'
tp118
sI95
(S'/Users/Dima/faiProgramming/Python/beatthestreak2/beatthestreak/beatthestreak/tests/testNPSimulation.py'
g110
S'TestNPSimulation.test_simulate'
tp119
sI96
(S'/Users/Dima/faiProgramming/Python/beatthestreak2/beatthestreak/beatthestreak/tests/testNPSimulation.py'
g110
S'TestNPSimulation.test_start_date_in_init'
tp120
sI97
(S'/Users/Dima/faiProgramming/Python/beatthestreak2/beatthestreak/beatthestreak/tests/testPlayer.py'
S'beatthestreak.tests.testPlayer'
p121
S'testPlayer.test__repr__and__str__'
tp122
sI98
(S'/Users/Dima/faiProgramming/Python/beatthestreak2/beatthestreak/beatthestreak/tests/testPlayer.py'
g121
S'testPlayer.test_eq__'
tp123
sI99
(S'/Users/Dima/faiProgramming/Python/beatthestreak2/beatthestreak/beatthestreak/tests/testPlayer.py'
g121
S'testPlayer.test_get_and_set_lahman_id'
tp124
sI100
(S'/Users/Dima/faiProgramming/Python/beatthestreak2/beatthestreak/beatthestreak/tests/testPlayer.py'
g121
S'testPlayer.test_get_and_set_retrosheet_id_and_init'
tp125
sI101
(S'/Users/Dima/faiProgramming/Python/beatthestreak2/beatthestreak/beatthestreak/tests/testPlayer.py'
g121
S'testPlayer.test_get_bat_ave'
tp126
sI102
(S'/Users/Dima/faiProgramming/Python/beatthestreak2/beatthestreak/beatthestreak/tests/testPlayer.py'
g121
S'testPlayer.test_get_name'
tp127
sI103
(S'/Users/Dima/faiProgramming/Python/beatthestreak2/beatthestreak/beatthestreak/tests/testResearcher.py'
S'beatthestreak.tests.testResearcher'
p128
S'TestResearcher.test_boxscore_buffer'
tp129
sI104
(S'/Users/Dima/faiProgramming/Python/beatthestreak2/beatthestreak/beatthestreak/tests/testResearcher.py'
g128
S'TestResearcher.test_check_date'
tp130
sI105
(S'/Users/Dima/faiProgramming/Python/beatthestreak2/beatthestreak/beatthestreak/tests/testResearcher.py'
g128
S'TestResearcher.test_create_player_hit_info_csv'
tp131
sI106
(S'/Users/Dima/faiProgramming/Python/beatthestreak2/beatthestreak/beatthestreak/tests/testResearcher.py'
g128
S'TestResearcher.test_did_get_hit'
tp132
sI107
(S'/Users/Dima/faiProgramming/Python/beatthestreak2/beatthestreak/beatthestreak/tests/testResearcher.py'
g128
S'TestResearcher.test_did_start'
tp133
sI108
(S'/Users/Dima/faiProgramming/Python/beatthestreak2/beatthestreak/beatthestreak/tests/testResearcher.py'
g128
S'TestResearcher.test_find_home_team'
tp134
sI109
(S'/Users/Dima/faiProgramming/Python/beatthestreak2/beatthestreak/beatthestreak/tests/testResearcher.py'
g128
S'TestResearcher.test_get_closing_day'
tp135
sI110
(S'/Users/Dima/faiProgramming/Python/beatthestreak2/beatthestreak/beatthestreak/tests/testResearcher.py'
g128
S'TestResearcher.test_get_hit_info'
tp136
sI111
(S'/Users/Dima/faiProgramming/Python/beatthestreak2/beatthestreak/beatthestreak/tests/testResearcher.py'
g128
S'TestResearcher.test_get_opening_day'
tp137
sI112
(S'/Users/Dima/faiProgramming/Python/beatthestreak2/beatthestreak/beatthestreak/tests/testResearcher.py'
g128
S'TestResearcher.test_get_participants_superset'
tp138
sI113
(S'/Users/Dima/faiProgramming/Python/beatthestreak2/beatthestreak/beatthestreak/tests/testResearcher.py'
g128
S'TestResearcher.test_get_participants_superset_buffer'
tp139
sI114
(S'/Users/Dima/faiProgramming/Python/beatthestreak2/beatthestreak/beatthestreak/tests/testResearcher.py'
g128
S'TestResearcher.test_get_sus_Games_dict'
tp140
sI115
(S'/Users/Dima/faiProgramming/Python/beatthestreak2/beatthestreak/beatthestreak/tests/testResearcher.py'
g128
S'TestResearcher.test_is_game_suspended'
tp141
sI116
(S'/Users/Dima/faiProgramming/Python/beatthestreak2/beatthestreak/beatthestreak/tests/testResearcher.py'
g128
S'TestResearcher.test_is_suspended_game_valid'
tp142
sI117
(S'/Users/Dima/faiProgramming/Python/beatthestreak2/beatthestreak/beatthestreak/tests/testResearcher.py'
g128
S'TestResearcher.test_list_of_games_buffer'
tp143
sI118
(S'/Users/Dima/faiProgramming/Python/beatthestreak2/beatthestreak/beatthestreak/tests/testResearcher.py'
g128
S'TestResearcher.test_name_from_lahman_id'
tp144
sI119
(S'/Users/Dima/faiProgramming/Python/beatthestreak2/beatthestreak/beatthestreak/tests/testResearcher.py'
g128
S'TestResearcher.test_num_at_bats'
tp145
sI120
(S'/Users/Dima/faiProgramming/Python/beatthestreak2/beatthestreak/beatthestreak/tests/testResearcher.py'
g128
S'TestResearcher.test_num_plate_appearances'
tp146
sI121
(S'/Users/Dima/faiProgramming/Python/beatthestreak2/beatthestreak/beatthestreak/tests/testResearcher.py'
g128
S'TestResearcher.test_player_info_buffer'
tp147
sI122
(S'/Users/Dima/faiProgramming/Python/beatthestreak2/beatthestreak/beatthestreak/tests/testRetrosheet.py'
S'beatthestreak.tests.testRetrosheet'
p148
S'TestRetrosheet.test_clean_used_files'
tp149
sI123
(S'/Users/Dima/faiProgramming/Python/beatthestreak2/beatthestreak/beatthestreak/tests/testRetrosheet.py'
g148
S'TestRetrosheet.test_download'
tp150
sI124
(S'/Users/Dima/faiProgramming/Python/beatthestreak2/beatthestreak/beatthestreak/tests/testRetrosheet.py'
g148
S'TestRetrosheet.test_gen_boxscores'
tp151
sI125
(S'/Users/Dima/faiProgramming/Python/beatthestreak2/beatthestreak/beatthestreak/tests/testRetrosheet.py'
g148
S'TestRetrosheet.test_gen_team_abbrevs'
tp152
sI126
(S'/Users/Dima/faiProgramming/Python/beatthestreak2/beatthestreak/beatthestreak/tests/testRetrosheet.py'
g148
S'TestRetrosheet.test_unzip'
tp153
sI127
(S'/Users/Dima/faiProgramming/Python/beatthestreak2/beatthestreak/beatthestreak/tests/testUtilities.py'
S'beatthestreak.tests.testUtilities'
p154
S'TestUtilities.test_clean_retrosheet_files'
tp155
sI128
(S'/Users/Dima/faiProgramming/Python/beatthestreak2/beatthestreak/beatthestreak/tests/testUtilities.py'
g154
S'TestUtilities.test_convert_date'
tp156
sI129
(S'/Users/Dima/faiProgramming/Python/beatthestreak2/beatthestreak/beatthestreak/tests/testUtilities.py'
g154
S'TestUtilities.test_ensure_boxscore_files_exist'
tp157
sI130
(S'/Users/Dima/faiProgramming/Python/beatthestreak2/beatthestreak/beatthestreak/tests/testUtilities.py'
g154
S'TestUtilities.test_ensure_gamelog_files_exist'
tp158
ss.