(dp1
S'failed'
p2
(lp3
sS'source_names'
p4
(lp5
S'tests/testNPSimulation.py'
p6
aS'.'
asS'ids'
p7
(dp8
I1
(S'/Users/faiyamrahman/programming/Python/beatthestreak/beatthestreak/tests/testNPSimulation.py'
S'beatthestreak.tests.testNPSimulation'
p9
S'TestNPSimulation.test_bat_years_ms'
tp10
sI2
(S'/Users/faiyamrahman/programming/Python/beatthestreak/beatthestreak/tests/testNPSimulation.py'
g9
S'TestNPSimulation.test_calc_and_get_min_bat_ave'
tp11
sI3
(S'/Users/faiyamrahman/programming/Python/beatthestreak/beatthestreak/tests/testNPSimulation.py'
g9
S'TestNPSimulation.test_get_year'
tp12
sI4
(S'/Users/faiyamrahman/programming/Python/beatthestreak/beatthestreak/tests/testNPSimulation.py'
g9
S'TestNPSimulation.test_mass_simulate'
tp13
sI5
(S'/Users/faiyamrahman/programming/Python/beatthestreak/beatthestreak/tests/testNPSimulation.py'
g9
S'TestNPSimulation.test_setup'
tp14
sI6
(S'/Users/faiyamrahman/programming/Python/beatthestreak/beatthestreak/tests/testNPSimulation.py'
g9
S'TestNPSimulation.test_sim_next_day_with_double_down'
tp15
sI7
(S'/Users/faiyamrahman/programming/Python/beatthestreak/beatthestreak/tests/testNPSimulation.py'
g9
S'TestNPSimulation.test_sim_next_day_without_double_down'
tp16
sI8
(S'/Users/faiyamrahman/programming/Python/beatthestreak/beatthestreak/tests/testNPSimulation.py'
g9
S'TestNPSimulation.test_simulate'
tp17
sI9
(S'/Users/faiyamrahman/programming/Python/beatthestreak/beatthestreak/tests/testNPSimulation.py'
g9
S'TestNPSimulation.test_start_date_in_init'
tp18
sI10
(S'/Users/faiyamrahman/programming/Python/beatthestreak/beatthestreak/tests/testNPSimulation.py'
S'beatthestreak.tests.testNPSimulation'
Ntp19
sI11
(S'/Users/faiyamrahman/programming/Python/beatthestreak/beatthestreak/tests/testBot.py'
S'beatthestreak.tests.testBot'
p20
S'TestBot.test_activate_mulligan_and_get_mulligan_status'
tp21
sI12
(S'/Users/faiyamrahman/programming/Python/beatthestreak/beatthestreak/tests/testBot.py'
g20
S'TestBot.test_bot_equality'
tp22
sI13
(S'/Users/faiyamrahman/programming/Python/beatthestreak/beatthestreak/tests/testBot.py'
g20
S'TestBot.test_get_index'
tp23
sI14
(S'/Users/faiyamrahman/programming/Python/beatthestreak/beatthestreak/tests/testBot.py'
g20
S'TestBot.test_incr_streak_length_and_get_streak_length'
tp24
sI15
(S'/Users/faiyamrahman/programming/Python/beatthestreak/beatthestreak/tests/testBot.py'
g20
S'TestBot.test_update_history_copy'
tp25
sI16
(S'/Users/faiyamrahman/programming/Python/beatthestreak/beatthestreak/tests/testBot.py'
g20
S'TestBot.test_update_history_double_down_no_mulligan'
tp26
sI17
(S'/Users/faiyamrahman/programming/Python/beatthestreak/beatthestreak/tests/testBot.py'
g20
S'TestBot.test_update_history_double_down_with_mulligan'
tp27
sI18
(S'/Users/faiyamrahman/programming/Python/beatthestreak/beatthestreak/tests/testBot.py'
g20
S'TestBot.test_update_history_single_down_no_mulligan'
tp28
sI19
(S'/Users/faiyamrahman/programming/Python/beatthestreak/beatthestreak/tests/testBot.py'
g20
S'TestBot.test_update_history_single_down_with_mulligan'
tp29
sI20
(S'/Users/faiyamrahman/programming/Python/beatthestreak/beatthestreak/tests/testCResearcher.py'
S'beatthestreak.tests.testCResearcher'
S'TestCResearcher.test_c_did_get_hit'
tp30
sI21
(S'/Users/faiyamrahman/programming/Python/beatthestreak/beatthestreak/tests/testFilePath.py'
S'beatthestreak.tests.testFilePath'
p31
S'TestFilepath.test_get_lahman_file'
tp32
sI22
(S'/Users/faiyamrahman/programming/Python/beatthestreak/beatthestreak/tests/testFilePath.py'
g31
S'TestFilepath.test_get_mass_results_file'
tp33
sI23
(S'/Users/faiyamrahman/programming/Python/beatthestreak/beatthestreak/tests/testFilePath.py'
g31
S'TestFilepath.test_get_results_folder'
tp34
sI24
(S'/Users/faiyamrahman/programming/Python/beatthestreak/beatthestreak/tests/testFilePath.py'
g31
S'TestFilepath.test_get_retrosheet_file'
tp35
sI25
(S'/Users/faiyamrahman/programming/Python/beatthestreak/beatthestreak/tests/testFilePath.py'
g31
S'TestFilepath.test_get_retrosheet_folder'
tp36
sI26
(S'/Users/faiyamrahman/programming/Python/beatthestreak/beatthestreak/tests/testFilePath.py'
g31
S'TestFilepath.test_get_root'
tp37
sI27
(S'/Users/faiyamrahman/programming/Python/beatthestreak/beatthestreak/tests/testFilePath.py'
g31
S'TestFilepath.test_results_file'
tp38
sI28
(S'/Users/faiyamrahman/programming/Python/beatthestreak/beatthestreak/tests/testNPReporter.py'
S'beatthestreak.tests.testNPReporter'
S'testNPReporter.test__calc_unique_bots'
tp39
sI29
(S'/Users/faiyamrahman/programming/Python/beatthestreak/beatthestreak/tests/testPlayer.py'
S'beatthestreak.tests.testPlayer'
p40
S'testPlayer.test__repr__and__str__'
tp41
sI30
(S'/Users/faiyamrahman/programming/Python/beatthestreak/beatthestreak/tests/testPlayer.py'
g40
S'testPlayer.test_eq__'
tp42
sI31
(S'/Users/faiyamrahman/programming/Python/beatthestreak/beatthestreak/tests/testPlayer.py'
g40
S'testPlayer.test_get_and_set_lahman_id'
tp43
sI32
(S'/Users/faiyamrahman/programming/Python/beatthestreak/beatthestreak/tests/testPlayer.py'
g40
S'testPlayer.test_get_and_set_retrosheet_id_and_init'
tp44
sI33
(S'/Users/faiyamrahman/programming/Python/beatthestreak/beatthestreak/tests/testPlayer.py'
g40
S'testPlayer.test_get_bat_ave'
tp45
sI34
(S'/Users/faiyamrahman/programming/Python/beatthestreak/beatthestreak/tests/testPlayer.py'
g40
S'testPlayer.test_get_name'
tp46
sI35
(S'/Users/faiyamrahman/programming/Python/beatthestreak/beatthestreak/tests/testResearcher.py'
S'beatthestreak.tests.testResearcher'
p47
S'TestResearcher.test_boxscore_buffer'
tp48
sI36
(S'/Users/faiyamrahman/programming/Python/beatthestreak/beatthestreak/tests/testResearcher.py'
g47
S'TestResearcher.test_check_date'
tp49
sI37
(S'/Users/faiyamrahman/programming/Python/beatthestreak/beatthestreak/tests/testResearcher.py'
g47
S'TestResearcher.test_did_get_hit'
tp50
sI38
(S'/Users/faiyamrahman/programming/Python/beatthestreak/beatthestreak/tests/testResearcher.py'
g47
S'TestResearcher.test_did_start'
tp51
sI39
(S'/Users/faiyamrahman/programming/Python/beatthestreak/beatthestreak/tests/testResearcher.py'
g47
S'TestResearcher.test_find_home_team'
tp52
sI40
(S'/Users/faiyamrahman/programming/Python/beatthestreak/beatthestreak/tests/testResearcher.py'
g47
S'TestResearcher.test_get_closing_day'
tp53
sI41
(S'/Users/faiyamrahman/programming/Python/beatthestreak/beatthestreak/tests/testResearcher.py'
g47
S'TestResearcher.test_get_hit_info'
tp54
sI42
(S'/Users/faiyamrahman/programming/Python/beatthestreak/beatthestreak/tests/testResearcher.py'
g47
S'TestResearcher.test_get_opening_day'
tp55
sI43
(S'/Users/faiyamrahman/programming/Python/beatthestreak/beatthestreak/tests/testResearcher.py'
g47
S'TestResearcher.test_get_participants_superset'
tp56
sI44
(S'/Users/faiyamrahman/programming/Python/beatthestreak/beatthestreak/tests/testResearcher.py'
g47
S'TestResearcher.test_get_sus_Games_dict'
tp57
sI45
(S'/Users/faiyamrahman/programming/Python/beatthestreak/beatthestreak/tests/testResearcher.py'
g47
S'TestResearcher.test_is_game_suspended'
tp58
sI46
(S'/Users/faiyamrahman/programming/Python/beatthestreak/beatthestreak/tests/testResearcher.py'
g47
S'TestResearcher.test_is_suspended_game_valid'
tp59
sI47
(S'/Users/faiyamrahman/programming/Python/beatthestreak/beatthestreak/tests/testResearcher.py'
g47
S'TestResearcher.test_list_of_games_buffer'
tp60
sI48
(S'/Users/faiyamrahman/programming/Python/beatthestreak/beatthestreak/tests/testResearcher.py'
g47
S'TestResearcher.test_name_from_lahman_id'
tp61
sI49
(S'/Users/faiyamrahman/programming/Python/beatthestreak/beatthestreak/tests/testResearcher.py'
g47
S'TestResearcher.test_num_at_bats'
tp62
sI50
(S'/Users/faiyamrahman/programming/Python/beatthestreak/beatthestreak/tests/testResearcher.py'
g47
S'TestResearcher.test_num_plate_appearances'
tp63
sI51
(S'/Users/faiyamrahman/programming/Python/beatthestreak/beatthestreak/tests/testResearcher.py'
g47
S'TestResearcher.test_player_info_buffer'
tp64
sI52
(S'/Users/faiyamrahman/programming/Python/beatthestreak/beatthestreak/tests/testRetrosheet.py'
S'beatthestreak.tests.testRetrosheet'
p65
S'TestRetrosheet.test_clean_used_files'
tp66
sI53
(S'/Users/faiyamrahman/programming/Python/beatthestreak/beatthestreak/tests/testRetrosheet.py'
g65
S'TestRetrosheet.test_download'
tp67
sI54
(S'/Users/faiyamrahman/programming/Python/beatthestreak/beatthestreak/tests/testRetrosheet.py'
g65
S'TestRetrosheet.test_gen_boxscores'
tp68
sI55
(S'/Users/faiyamrahman/programming/Python/beatthestreak/beatthestreak/tests/testRetrosheet.py'
g65
S'TestRetrosheet.test_gen_team_abbrevs'
tp69
sI56
(S'/Users/faiyamrahman/programming/Python/beatthestreak/beatthestreak/tests/testRetrosheet.py'
g65
S'TestRetrosheet.test_unzip'
tp70
sI57
(S'/Users/faiyamrahman/programming/Python/beatthestreak/beatthestreak/tests/testUtilities.py'
S'beatthestreak.tests.testUtilities'
p71
S'TestUtilities.test_clean_retrosheet_files'
tp72
sI58
(S'/Users/faiyamrahman/programming/Python/beatthestreak/beatthestreak/tests/testUtilities.py'
g71
S'TestUtilities.test_convert_date'
tp73
sI59
(S'/Users/faiyamrahman/programming/Python/beatthestreak/beatthestreak/tests/testUtilities.py'
g71
S'TestUtilities.test_ensure_boxscore_files_exist'
tp74
sI60
(S'/Users/faiyamrahman/programming/Python/beatthestreak/beatthestreak/tests/testUtilities.py'
g71
S'TestUtilities.test_ensure_gamelog_files_exist'
tp75
sI61
(S'/Users/faiyamrahman/programming/Python/beatthestreak/beatthestreak/tests/testCResearcher.py'
S'beatthestreak.tests.testCResearcher'
p76
S'TestCResearcher.test_c_cget_hit_info'
tp77
sI62
(S'/Users/faiyamrahman/programming/Python/beatthestreak/beatthestreak/tests/testFilePath.py'
S'beatthestreak.tests.testFilePath'
p78
S'TestFilepath.test_get_player_hit_info_csv_file'
tp79
sI63
(S'/Users/faiyamrahman/programming/Python/beatthestreak/beatthestreak/tests/testNPReporter.py'
S'beatthestreak.tests.testNPReporter'
p80
S'testNPReporter.test_calc_unique_bots'
tp81
sI64
(S'/Users/faiyamrahman/programming/Python/beatthestreak/beatthestreak/tests/testNPSimulation.py'
S'beatthestreak.tests.testNPSimulation'
p82
S'TestNPSimulation.test__get_min_pa_range'
tp83
sI65
(S'/Users/faiyamrahman/programming/Python/beatthestreak/beatthestreak/tests/testResearcher.py'
S'beatthestreak.tests.testResearcher'
p84
S'TestResearcher.test_create_player_hit_info_csv'
tp85
sI66
(S'/Users/faiyamrahman/programming/Python/beatthestreak/beatthestreak/tests/testResearcher.py'
g84
S'TestResearcher.test_get_participants_superset_buffer'
tp86
ss.