(dp1
S'failed'
p2
(lp3
sS'source_names'
p4
(lp5
S'tests/testNPSimulation.py'
p6
asS'ids'
p7
(dp8
I1
(S'/Users/faiyamrahman/programming/Python/beatthestreak/beatthestreak/tests/testNPSimulation.py'
S'beatthestreak.tests.testNPSimulation'
p9
S'TestNPSimulation.test_bat_years_ms'
tp10
sI2
(S'/Users/faiyamrahman/programming/Python/beatthestreak/beatthestreak/tests/testNPSimulation.py'
g9
S'TestNPSimulation.test_calc_and_get_min_bat_ave'
tp11
sI3
(S'/Users/faiyamrahman/programming/Python/beatthestreak/beatthestreak/tests/testNPSimulation.py'
g9
S'TestNPSimulation.test_get_year'
tp12
sI4
(S'/Users/faiyamrahman/programming/Python/beatthestreak/beatthestreak/tests/testNPSimulation.py'
g9
S'TestNPSimulation.test_mass_simulate'
tp13
sI5
(S'/Users/faiyamrahman/programming/Python/beatthestreak/beatthestreak/tests/testNPSimulation.py'
g9
S'TestNPSimulation.test_setup'
tp14
sI6
(S'/Users/faiyamrahman/programming/Python/beatthestreak/beatthestreak/tests/testNPSimulation.py'
g9
S'TestNPSimulation.test_sim_next_day_with_double_down'
tp15
sI7
(S'/Users/faiyamrahman/programming/Python/beatthestreak/beatthestreak/tests/testNPSimulation.py'
g9
S'TestNPSimulation.test_sim_next_day_without_double_down'
tp16
sI8
(S'/Users/faiyamrahman/programming/Python/beatthestreak/beatthestreak/tests/testNPSimulation.py'
g9
S'TestNPSimulation.test_simulate'
tp17
sI9
(S'/Users/faiyamrahman/programming/Python/beatthestreak/beatthestreak/tests/testNPSimulation.py'
g9
S'TestNPSimulation.test_start_date_in_init'
tp18
sI10
(S'/Users/faiyamrahman/programming/Python/beatthestreak/beatthestreak/tests/testNPSimulation.py'
S'beatthestreak.tests.testNPSimulation'
Ntp19
ss.