(dp1
S'failed'
p2
(lp3
S'6'
aS'7'
aS'41'
p4
aS'51'
p5
asS'source_names'
p6
(lp7
S'tests/testNPSimulation.py'
p8
aS'.'
asS'ids'
p9
(dp10
I1
(S'/Users/faiyamrahman/programming/Python/beatthestreak/beatthestreak/tests/testNPSimulation.py'
S'beatthestreak.tests.testNPSimulation'
p11
S'TestNPSimulation.test_bat_years_ms'
tp12
sI2
(S'/Users/faiyamrahman/programming/Python/beatthestreak/beatthestreak/tests/testNPSimulation.py'
g11
S'TestNPSimulation.test_calc_and_get_min_bat_ave'
tp13
sI3
(S'/Users/faiyamrahman/programming/Python/beatthestreak/beatthestreak/tests/testNPSimulation.py'
g11
S'TestNPSimulation.test_get_year'
tp14
sI4
(S'/Users/faiyamrahman/programming/Python/beatthestreak/beatthestreak/tests/testNPSimulation.py'
g11
S'TestNPSimulation.test_mass_simulate'
tp15
sI5
(S'/Users/faiyamrahman/programming/Python/beatthestreak/beatthestreak/tests/testNPSimulation.py'
g11
S'TestNPSimulation.test_setup'
tp16
sI6
(S'/Users/faiyamrahman/programming/Python/beatthestreak/beatthestreak/tests/testNPSimulation.py'
g11
S'TestNPSimulation.test_sim_next_day_with_double_down'
tp17
sI7
(S'/Users/faiyamrahman/programming/Python/beatthestreak/beatthestreak/tests/testNPSimulation.py'
g11
S'TestNPSimulation.test_sim_next_day_without_double_down'
tp18
sI8
(S'/Users/faiyamrahman/programming/Python/beatthestreak/beatthestreak/tests/testNPSimulation.py'
g11
S'TestNPSimulation.test_simulate'
tp19
sI9
(S'/Users/faiyamrahman/programming/Python/beatthestreak/beatthestreak/tests/testNPSimulation.py'
g11
S'TestNPSimulation.test_start_date_in_init'
tp20
sI10
(S'/Users/faiyamrahman/programming/Python/beatthestreak/beatthestreak/tests/testNPSimulation.py'
S'beatthestreak.tests.testNPSimulation'
Ntp21
sI11
(S'/Users/faiyamrahman/programming/Python/beatthestreak/beatthestreak/tests/testBot.py'
S'beatthestreak.tests.testBot'
p22
S'TestBot.test_activate_mulligan_and_get_mulligan_status'
tp23
sI12
(S'/Users/faiyamrahman/programming/Python/beatthestreak/beatthestreak/tests/testBot.py'
g22
S'TestBot.test_bot_equality'
tp24
sI13
(S'/Users/faiyamrahman/programming/Python/beatthestreak/beatthestreak/tests/testBot.py'
g22
S'TestBot.test_get_index'
tp25
sI14
(S'/Users/faiyamrahman/programming/Python/beatthestreak/beatthestreak/tests/testBot.py'
g22
S'TestBot.test_incr_streak_length_and_get_streak_length'
tp26
sI15
(S'/Users/faiyamrahman/programming/Python/beatthestreak/beatthestreak/tests/testBot.py'
g22
S'TestBot.test_update_history_copy'
tp27
sI16
(S'/Users/faiyamrahman/programming/Python/beatthestreak/beatthestreak/tests/testBot.py'
g22
S'TestBot.test_update_history_double_down_no_mulligan'
tp28
sI17
(S'/Users/faiyamrahman/programming/Python/beatthestreak/beatthestreak/tests/testBot.py'
g22
S'TestBot.test_update_history_double_down_with_mulligan'
tp29
sI18
(S'/Users/faiyamrahman/programming/Python/beatthestreak/beatthestreak/tests/testBot.py'
g22
S'TestBot.test_update_history_single_down_no_mulligan'
tp30
sI19
(S'/Users/faiyamrahman/programming/Python/beatthestreak/beatthestreak/tests/testBot.py'
g22
S'TestBot.test_update_history_single_down_with_mulligan'
tp31
sI20
(S'/Users/faiyamrahman/programming/Python/beatthestreak/beatthestreak/tests/testCResearcher.py'
S'beatthestreak.tests.testCResearcher'
S'TestCResearcher.test_c_did_get_hit'
tp32
sI21
(S'/Users/faiyamrahman/programming/Python/beatthestreak/beatthestreak/tests/testFilePath.py'
S'beatthestreak.tests.testFilePath'
p33
S'TestFilepath.test_get_lahman_file'
tp34
sI22
(S'/Users/faiyamrahman/programming/Python/beatthestreak/beatthestreak/tests/testFilePath.py'
g33
S'TestFilepath.test_get_mass_results_file'
tp35
sI23
(S'/Users/faiyamrahman/programming/Python/beatthestreak/beatthestreak/tests/testFilePath.py'
g33
S'TestFilepath.test_get_results_folder'
tp36
sI24
(S'/Users/faiyamrahman/programming/Python/beatthestreak/beatthestreak/tests/testFilePath.py'
g33
S'TestFilepath.test_get_retrosheet_file'
tp37
sI25
(S'/Users/faiyamrahman/programming/Python/beatthestreak/beatthestreak/tests/testFilePath.py'
g33
S'TestFilepath.test_get_retrosheet_folder'
tp38
sI26
(S'/Users/faiyamrahman/programming/Python/beatthestreak/beatthestreak/tests/testFilePath.py'
g33
S'TestFilepath.test_get_root'
tp39
sI27
(S'/Users/faiyamrahman/programming/Python/beatthestreak/beatthestreak/tests/testFilePath.py'
g33
S'TestFilepath.test_results_file'
tp40
sI28
(S'/Users/faiyamrahman/programming/Python/beatthestreak/beatthestreak/tests/testNPReporter.py'
S'beatthestreak.tests.testNPReporter'
S'testNPReporter.test__calc_unique_bots'
tp41
sI29
(S'/Users/faiyamrahman/programming/Python/beatthestreak/beatthestreak/tests/testPlayer.py'
S'beatthestreak.tests.testPlayer'
p42
S'testPlayer.test__repr__and__str__'
tp43
sI30
(S'/Users/faiyamrahman/programming/Python/beatthestreak/beatthestreak/tests/testPlayer.py'
g42
S'testPlayer.test_eq__'
tp44
sI31
(S'/Users/faiyamrahman/programming/Python/beatthestreak/beatthestreak/tests/testPlayer.py'
g42
S'testPlayer.test_get_and_set_lahman_id'
tp45
sI32
(S'/Users/faiyamrahman/programming/Python/beatthestreak/beatthestreak/tests/testPlayer.py'
g42
S'testPlayer.test_get_and_set_retrosheet_id_and_init'
tp46
sI33
(S'/Users/faiyamrahman/programming/Python/beatthestreak/beatthestreak/tests/testPlayer.py'
g42
S'testPlayer.test_get_bat_ave'
tp47
sI34
(S'/Users/faiyamrahman/programming/Python/beatthestreak/beatthestreak/tests/testPlayer.py'
g42
S'testPlayer.test_get_name'
tp48
sI35
(S'/Users/faiyamrahman/programming/Python/beatthestreak/beatthestreak/tests/testResearcher.py'
S'beatthestreak.tests.testResearcher'
p49
S'TestResearcher.test_boxscore_buffer'
tp50
sI36
(S'/Users/faiyamrahman/programming/Python/beatthestreak/beatthestreak/tests/testResearcher.py'
g49
S'TestResearcher.test_check_date'
tp51
sI37
(S'/Users/faiyamrahman/programming/Python/beatthestreak/beatthestreak/tests/testResearcher.py'
g49
S'TestResearcher.test_did_get_hit'
tp52
sI38
(S'/Users/faiyamrahman/programming/Python/beatthestreak/beatthestreak/tests/testResearcher.py'
g49
S'TestResearcher.test_did_start'
tp53
sI39
(S'/Users/faiyamrahman/programming/Python/beatthestreak/beatthestreak/tests/testResearcher.py'
g49
S'TestResearcher.test_find_home_team'
tp54
sI40
(S'/Users/faiyamrahman/programming/Python/beatthestreak/beatthestreak/tests/testResearcher.py'
g49
S'TestResearcher.test_get_closing_day'
tp55
sI41
(S'/Users/faiyamrahman/programming/Python/beatthestreak/beatthestreak/tests/testResearcher.py'
g49
S'TestResearcher.test_get_hit_info'
tp56
sI42
(S'/Users/faiyamrahman/programming/Python/beatthestreak/beatthestreak/tests/testResearcher.py'
g49
S'TestResearcher.test_get_opening_day'
tp57
sI43
(S'/Users/faiyamrahman/programming/Python/beatthestreak/beatthestreak/tests/testResearcher.py'
g49
S'TestResearcher.test_get_participants_superset'
tp58
sI44
(S'/Users/faiyamrahman/programming/Python/beatthestreak/beatthestreak/tests/testResearcher.py'
g49
S'TestResearcher.test_get_sus_Games_dict'
tp59
sI45
(S'/Users/faiyamrahman/programming/Python/beatthestreak/beatthestreak/tests/testResearcher.py'
g49
S'TestResearcher.test_is_game_suspended'
tp60
sI46
(S'/Users/faiyamrahman/programming/Python/beatthestreak/beatthestreak/tests/testResearcher.py'
g49
S'TestResearcher.test_is_suspended_game_valid'
tp61
sI47
(S'/Users/faiyamrahman/programming/Python/beatthestreak/beatthestreak/tests/testResearcher.py'
g49
S'TestResearcher.test_list_of_games_buffer'
tp62
sI48
(S'/Users/faiyamrahman/programming/Python/beatthestreak/beatthestreak/tests/testResearcher.py'
g49
S'TestResearcher.test_name_from_lahman_id'
tp63
sI49
(S'/Users/faiyamrahman/programming/Python/beatthestreak/beatthestreak/tests/testResearcher.py'
g49
S'TestResearcher.test_num_at_bats'
tp64
sI50
(S'/Users/faiyamrahman/programming/Python/beatthestreak/beatthestreak/tests/testResearcher.py'
g49
S'TestResearcher.test_num_plate_appearances'
tp65
sI51
(S'/Users/faiyamrahman/programming/Python/beatthestreak/beatthestreak/tests/testResearcher.py'
g49
S'TestResearcher.test_player_info_buffer'
tp66
sI52
(S'/Users/faiyamrahman/programming/Python/beatthestreak/beatthestreak/tests/testRetrosheet.py'
S'beatthestreak.tests.testRetrosheet'
p67
S'TestRetrosheet.test_clean_used_files'
tp68
sI53
(S'/Users/faiyamrahman/programming/Python/beatthestreak/beatthestreak/tests/testRetrosheet.py'
g67
S'TestRetrosheet.test_download'
tp69
sI54
(S'/Users/faiyamrahman/programming/Python/beatthestreak/beatthestreak/tests/testRetrosheet.py'
g67
S'TestRetrosheet.test_gen_boxscores'
tp70
sI55
(S'/Users/faiyamrahman/programming/Python/beatthestreak/beatthestreak/tests/testRetrosheet.py'
g67
S'TestRetrosheet.test_gen_team_abbrevs'
tp71
sI56
(S'/Users/faiyamrahman/programming/Python/beatthestreak/beatthestreak/tests/testRetrosheet.py'
g67
S'TestRetrosheet.test_unzip'
tp72
sI57
(S'/Users/faiyamrahman/programming/Python/beatthestreak/beatthestreak/tests/testUtilities.py'
S'beatthestreak.tests.testUtilities'
p73
S'TestUtilities.test_clean_retrosheet_files'
tp74
sI58
(S'/Users/faiyamrahman/programming/Python/beatthestreak/beatthestreak/tests/testUtilities.py'
g73
S'TestUtilities.test_convert_date'
tp75
sI59
(S'/Users/faiyamrahman/programming/Python/beatthestreak/beatthestreak/tests/testUtilities.py'
g73
S'TestUtilities.test_ensure_boxscore_files_exist'
tp76
sI60
(S'/Users/faiyamrahman/programming/Python/beatthestreak/beatthestreak/tests/testUtilities.py'
g73
S'TestUtilities.test_ensure_gamelog_files_exist'
tp77
ss.