(dp1
S'failed'
p2
(lp3
S'87'
p4
aS'95'
p5
asS'source_names'
p6
(lp7
S'tests/testNPSimulation.py'
p8
aS'.'
asS'ids'
p9
(dp10
I1
(S'/Users/faiyamrahman/programming/Python/beatthestreak/beatthestreak/tests/testNPSimulation.py'
S'beatthestreak.tests.testNPSimulation'
p11
S'TestNPSimulation.test_bat_years_ms'
tp12
sI2
(S'/Users/faiyamrahman/programming/Python/beatthestreak/beatthestreak/tests/testNPSimulation.py'
g11
S'TestNPSimulation.test_calc_and_get_min_bat_ave'
tp13
sI3
(S'/Users/faiyamrahman/programming/Python/beatthestreak/beatthestreak/tests/testNPSimulation.py'
g11
S'TestNPSimulation.test_get_year'
tp14
sI4
(S'/Users/faiyamrahman/programming/Python/beatthestreak/beatthestreak/tests/testNPSimulation.py'
g11
S'TestNPSimulation.test_mass_simulate'
tp15
sI5
(S'/Users/faiyamrahman/programming/Python/beatthestreak/beatthestreak/tests/testNPSimulation.py'
g11
S'TestNPSimulation.test_setup'
tp16
sI6
(S'/Users/faiyamrahman/programming/Python/beatthestreak/beatthestreak/tests/testNPSimulation.py'
g11
S'TestNPSimulation.test_sim_next_day_with_double_down'
tp17
sI7
(S'/Users/faiyamrahman/programming/Python/beatthestreak/beatthestreak/tests/testNPSimulation.py'
g11
S'TestNPSimulation.test_sim_next_day_without_double_down'
tp18
sI8
(S'/Users/faiyamrahman/programming/Python/beatthestreak/beatthestreak/tests/testNPSimulation.py'
g11
S'TestNPSimulation.test_simulate'
tp19
sI9
(S'/Users/faiyamrahman/programming/Python/beatthestreak/beatthestreak/tests/testNPSimulation.py'
g11
S'TestNPSimulation.test_start_date_in_init'
tp20
sI10
(S'/Users/faiyamrahman/programming/Python/beatthestreak/beatthestreak/tests/testNPSimulation.py'
S'beatthestreak.tests.testNPSimulation'
Ntp21
sI11
(S'/Users/faiyamrahman/programming/Python/beatthestreak/beatthestreak/tests/testBot.py'
S'beatthestreak.tests.testBot'
p22
S'TestBot.test_activate_mulligan_and_get_mulligan_status'
tp23
sI12
(S'/Users/faiyamrahman/programming/Python/beatthestreak/beatthestreak/tests/testBot.py'
g22
S'TestBot.test_bot_equality'
tp24
sI13
(S'/Users/faiyamrahman/programming/Python/beatthestreak/beatthestreak/tests/testBot.py'
g22
S'TestBot.test_get_index'
tp25
sI14
(S'/Users/faiyamrahman/programming/Python/beatthestreak/beatthestreak/tests/testBot.py'
g22
S'TestBot.test_incr_streak_length_and_get_streak_length'
tp26
sI15
(S'/Users/faiyamrahman/programming/Python/beatthestreak/beatthestreak/tests/testBot.py'
g22
S'TestBot.test_update_history_copy'
tp27
sI16
(S'/Users/faiyamrahman/programming/Python/beatthestreak/beatthestreak/tests/testBot.py'
g22
S'TestBot.test_update_history_double_down_no_mulligan'
tp28
sI17
(S'/Users/faiyamrahman/programming/Python/beatthestreak/beatthestreak/tests/testBot.py'
g22
S'TestBot.test_update_history_double_down_with_mulligan'
tp29
sI18
(S'/Users/faiyamrahman/programming/Python/beatthestreak/beatthestreak/tests/testBot.py'
g22
S'TestBot.test_update_history_single_down_no_mulligan'
tp30
sI19
(S'/Users/faiyamrahman/programming/Python/beatthestreak/beatthestreak/tests/testBot.py'
g22
S'TestBot.test_update_history_single_down_with_mulligan'
tp31
sI20
(S'/Users/faiyamrahman/programming/Python/beatthestreak/beatthestreak/tests/testCResearcher.py'
S'beatthestreak.tests.testCResearcher'
S'TestCResearcher.test_c_did_get_hit'
tp32
sI21
(S'/Users/faiyamrahman/programming/Python/beatthestreak/beatthestreak/tests/testFilePath.py'
S'beatthestreak.tests.testFilePath'
p33
S'TestFilepath.test_get_lahman_file'
tp34
sI22
(S'/Users/faiyamrahman/programming/Python/beatthestreak/beatthestreak/tests/testFilePath.py'
g33
S'TestFilepath.test_get_mass_results_file'
tp35
sI23
(S'/Users/faiyamrahman/programming/Python/beatthestreak/beatthestreak/tests/testFilePath.py'
g33
S'TestFilepath.test_get_results_folder'
tp36
sI24
(S'/Users/faiyamrahman/programming/Python/beatthestreak/beatthestreak/tests/testFilePath.py'
g33
S'TestFilepath.test_get_retrosheet_file'
tp37
sI25
(S'/Users/faiyamrahman/programming/Python/beatthestreak/beatthestreak/tests/testFilePath.py'
g33
S'TestFilepath.test_get_retrosheet_folder'
tp38
sI26
(S'/Users/faiyamrahman/programming/Python/beatthestreak/beatthestreak/tests/testFilePath.py'
g33
S'TestFilepath.test_get_root'
tp39
sI27
(S'/Users/faiyamrahman/programming/Python/beatthestreak/beatthestreak/tests/testFilePath.py'
g33
S'TestFilepath.test_results_file'
tp40
sI28
(S'/Users/faiyamrahman/programming/Python/beatthestreak/beatthestreak/tests/testNPReporter.py'
S'beatthestreak.tests.testNPReporter'
S'testNPReporter.test__calc_unique_bots'
tp41
sI29
(S'/Users/faiyamrahman/programming/Python/beatthestreak/beatthestreak/tests/testPlayer.py'
S'beatthestreak.tests.testPlayer'
p42
S'testPlayer.test__repr__and__str__'
tp43
sI30
(S'/Users/faiyamrahman/programming/Python/beatthestreak/beatthestreak/tests/testPlayer.py'
g42
S'testPlayer.test_eq__'
tp44
sI31
(S'/Users/faiyamrahman/programming/Python/beatthestreak/beatthestreak/tests/testPlayer.py'
g42
S'testPlayer.test_get_and_set_lahman_id'
tp45
sI32
(S'/Users/faiyamrahman/programming/Python/beatthestreak/beatthestreak/tests/testPlayer.py'
g42
S'testPlayer.test_get_and_set_retrosheet_id_and_init'
tp46
sI33
(S'/Users/faiyamrahman/programming/Python/beatthestreak/beatthestreak/tests/testPlayer.py'
g42
S'testPlayer.test_get_bat_ave'
tp47
sI34
(S'/Users/faiyamrahman/programming/Python/beatthestreak/beatthestreak/tests/testPlayer.py'
g42
S'testPlayer.test_get_name'
tp48
sI35
(S'/Users/faiyamrahman/programming/Python/beatthestreak/beatthestreak/tests/testResearcher.py'
S'beatthestreak.tests.testResearcher'
p49
S'TestResearcher.test_boxscore_buffer'
tp50
sI36
(S'/Users/faiyamrahman/programming/Python/beatthestreak/beatthestreak/tests/testResearcher.py'
g49
S'TestResearcher.test_check_date'
tp51
sI37
(S'/Users/faiyamrahman/programming/Python/beatthestreak/beatthestreak/tests/testResearcher.py'
g49
S'TestResearcher.test_did_get_hit'
tp52
sI38
(S'/Users/faiyamrahman/programming/Python/beatthestreak/beatthestreak/tests/testResearcher.py'
g49
S'TestResearcher.test_did_start'
tp53
sI39
(S'/Users/faiyamrahman/programming/Python/beatthestreak/beatthestreak/tests/testResearcher.py'
g49
S'TestResearcher.test_find_home_team'
tp54
sI40
(S'/Users/faiyamrahman/programming/Python/beatthestreak/beatthestreak/tests/testResearcher.py'
g49
S'TestResearcher.test_get_closing_day'
tp55
sI41
(S'/Users/faiyamrahman/programming/Python/beatthestreak/beatthestreak/tests/testResearcher.py'
g49
S'TestResearcher.test_get_hit_info'
tp56
sI42
(S'/Users/faiyamrahman/programming/Python/beatthestreak/beatthestreak/tests/testResearcher.py'
g49
S'TestResearcher.test_get_opening_day'
tp57
sI43
(S'/Users/faiyamrahman/programming/Python/beatthestreak/beatthestreak/tests/testResearcher.py'
g49
S'TestResearcher.test_get_participants_superset'
tp58
sI44
(S'/Users/faiyamrahman/programming/Python/beatthestreak/beatthestreak/tests/testResearcher.py'
g49
S'TestResearcher.test_get_sus_Games_dict'
tp59
sI45
(S'/Users/faiyamrahman/programming/Python/beatthestreak/beatthestreak/tests/testResearcher.py'
g49
S'TestResearcher.test_is_game_suspended'
tp60
sI46
(S'/Users/faiyamrahman/programming/Python/beatthestreak/beatthestreak/tests/testResearcher.py'
g49
S'TestResearcher.test_is_suspended_game_valid'
tp61
sI47
(S'/Users/faiyamrahman/programming/Python/beatthestreak/beatthestreak/tests/testResearcher.py'
g49
S'TestResearcher.test_list_of_games_buffer'
tp62
sI48
(S'/Users/faiyamrahman/programming/Python/beatthestreak/beatthestreak/tests/testResearcher.py'
g49
S'TestResearcher.test_name_from_lahman_id'
tp63
sI49
(S'/Users/faiyamrahman/programming/Python/beatthestreak/beatthestreak/tests/testResearcher.py'
g49
S'TestResearcher.test_num_at_bats'
tp64
sI50
(S'/Users/faiyamrahman/programming/Python/beatthestreak/beatthestreak/tests/testResearcher.py'
g49
S'TestResearcher.test_num_plate_appearances'
tp65
sI51
(S'/Users/faiyamrahman/programming/Python/beatthestreak/beatthestreak/tests/testResearcher.py'
g49
S'TestResearcher.test_player_info_buffer'
tp66
sI52
(S'/Users/faiyamrahman/programming/Python/beatthestreak/beatthestreak/tests/testRetrosheet.py'
S'beatthestreak.tests.testRetrosheet'
p67
S'TestRetrosheet.test_clean_used_files'
tp68
sI53
(S'/Users/faiyamrahman/programming/Python/beatthestreak/beatthestreak/tests/testRetrosheet.py'
g67
S'TestRetrosheet.test_download'
tp69
sI54
(S'/Users/faiyamrahman/programming/Python/beatthestreak/beatthestreak/tests/testRetrosheet.py'
g67
S'TestRetrosheet.test_gen_boxscores'
tp70
sI55
(S'/Users/faiyamrahman/programming/Python/beatthestreak/beatthestreak/tests/testRetrosheet.py'
g67
S'TestRetrosheet.test_gen_team_abbrevs'
tp71
sI56
(S'/Users/faiyamrahman/programming/Python/beatthestreak/beatthestreak/tests/testRetrosheet.py'
g67
S'TestRetrosheet.test_unzip'
tp72
sI57
(S'/Users/faiyamrahman/programming/Python/beatthestreak/beatthestreak/tests/testUtilities.py'
S'beatthestreak.tests.testUtilities'
p73
S'TestUtilities.test_clean_retrosheet_files'
tp74
sI58
(S'/Users/faiyamrahman/programming/Python/beatthestreak/beatthestreak/tests/testUtilities.py'
g73
S'TestUtilities.test_convert_date'
tp75
sI59
(S'/Users/faiyamrahman/programming/Python/beatthestreak/beatthestreak/tests/testUtilities.py'
g73
S'TestUtilities.test_ensure_boxscore_files_exist'
tp76
sI60
(S'/Users/faiyamrahman/programming/Python/beatthestreak/beatthestreak/tests/testUtilities.py'
g73
S'TestUtilities.test_ensure_gamelog_files_exist'
tp77
sI61
(S'/Users/faiyamrahman/programming/Python/beatthestreak/beatthestreak/tests/testCResearcher.py'
S'beatthestreak.tests.testCResearcher'
S'TestCResearcher.test_c_cget_hit_info'
tp78
sI62
(S'/Users/faiyamrahman/programming/Python/beatthestreak/beatthestreak/tests/testFilePath.py'
S'beatthestreak.tests.testFilePath'
S'TestFilepath.test_get_player_hit_info_csv_file'
tp79
sI63
(S'/Users/faiyamrahman/programming/Python/beatthestreak/beatthestreak/tests/testNPReporter.py'
S'beatthestreak.tests.testNPReporter'
S'testNPReporter.test_calc_unique_bots'
tp80
sI64
(S'/Users/faiyamrahman/programming/Python/beatthestreak/beatthestreak/tests/testNPSimulation.py'
S'beatthestreak.tests.testNPSimulation'
S'TestNPSimulation.test__get_min_pa_range'
tp81
sI65
(S'/Users/faiyamrahman/programming/Python/beatthestreak/beatthestreak/tests/testResearcher.py'
S'beatthestreak.tests.testResearcher'
p82
S'TestResearcher.test_create_player_hit_info_csv'
tp83
sI66
(S'/Users/faiyamrahman/programming/Python/beatthestreak/beatthestreak/tests/testResearcher.py'
g82
S'TestResearcher.test_get_participants_superset_buffer'
tp84
sI67
(S'/Users/Dima/faiProgramming/Python/beatthestreak2/beatthestreak/beatthestreak/tests/testBot.py'
S'beatthestreak.tests.testBot'
p85
S'TestBot.test_activate_mulligan_and_get_mulligan_status'
tp86
sI68
(S'/Users/Dima/faiProgramming/Python/beatthestreak2/beatthestreak/beatthestreak/tests/testBot.py'
g85
S'TestBot.test_bot_equality'
tp87
sI69
(S'/Users/Dima/faiProgramming/Python/beatthestreak2/beatthestreak/beatthestreak/tests/testBot.py'
g85
S'TestBot.test_get_index'
tp88
sI70
(S'/Users/Dima/faiProgramming/Python/beatthestreak2/beatthestreak/beatthestreak/tests/testBot.py'
g85
S'TestBot.test_incr_streak_length_and_get_streak_length'
tp89
sI71
(S'/Users/Dima/faiProgramming/Python/beatthestreak2/beatthestreak/beatthestreak/tests/testBot.py'
g85
S'TestBot.test_update_history_double_down_no_mulligan'
tp90
sI72
(S'/Users/Dima/faiProgramming/Python/beatthestreak2/beatthestreak/beatthestreak/tests/testBot.py'
g85
S'TestBot.test_update_history_double_down_with_mulligan'
tp91
sI73
(S'/Users/Dima/faiProgramming/Python/beatthestreak2/beatthestreak/beatthestreak/tests/testBot.py'
g85
S'TestBot.test_update_history_single_down_no_mulligan'
tp92
sI74
(S'/Users/Dima/faiProgramming/Python/beatthestreak2/beatthestreak/beatthestreak/tests/testBot.py'
g85
S'TestBot.test_update_history_single_down_with_mulligan'
tp93
sI75
(S'/Users/Dima/faiProgramming/Python/beatthestreak2/beatthestreak/beatthestreak/tests/testCResearcher.py'
S'beatthestreak.tests.testCResearcher'
p94
S'TestCResearcher.test_c_cget_hit_info'
tp95
sI76
(S'/Users/Dima/faiProgramming/Python/beatthestreak2/beatthestreak/beatthestreak/tests/testCResearcher.py'
g94
S'TestCResearcher.test_c_did_get_hit'
tp96
sI77
(S'/Users/Dima/faiProgramming/Python/beatthestreak2/beatthestreak/beatthestreak/tests/testCResearcher.py'
g94
S'TestCResearcher.test_did_start'
tp97
sI78
(S'/Users/Dima/faiProgramming/Python/beatthestreak2/beatthestreak/beatthestreak/tests/testFilePath.py'
S'beatthestreak.tests.testFilePath'
p98
S'TestFilepath.test_get_lahman_file'
tp99
sI79
(S'/Users/Dima/faiProgramming/Python/beatthestreak2/beatthestreak/beatthestreak/tests/testFilePath.py'
g98
S'TestFilepath.test_get_mass_results_file'
tp100
sI80
(S'/Users/Dima/faiProgramming/Python/beatthestreak2/beatthestreak/beatthestreak/tests/testFilePath.py'
g98
S'TestFilepath.test_get_player_hit_info_csv_file'
tp101
sI81
(S'/Users/Dima/faiProgramming/Python/beatthestreak2/beatthestreak/beatthestreak/tests/testFilePath.py'
g98
S'TestFilepath.test_get_results_folder'
tp102
sI82
(S'/Users/Dima/faiProgramming/Python/beatthestreak2/beatthestreak/beatthestreak/tests/testFilePath.py'
g98
S'TestFilepath.test_get_retrosheet_file'
tp103
sI83
(S'/Users/Dima/faiProgramming/Python/beatthestreak2/beatthestreak/beatthestreak/tests/testFilePath.py'
g98
S'TestFilepath.test_get_retrosheet_folder'
tp104
sI84
(S'/Users/Dima/faiProgramming/Python/beatthestreak2/beatthestreak/beatthestreak/tests/testFilePath.py'
g98
S'TestFilepath.test_get_root'
tp105
sI85
(S'/Users/Dima/faiProgramming/Python/beatthestreak2/beatthestreak/beatthestreak/tests/testFilePath.py'
g98
S'TestFilepath.test_results_file'
tp106
sI86
(S'/Users/Dima/faiProgramming/Python/beatthestreak2/beatthestreak/beatthestreak/tests/testNPReporter.py'
S'beatthestreak.tests.testNPReporter'
p107
S'testNPReporter.test_calc_unique_bots'
tp108
sI87
(S'/Users/Dima/faiProgramming/Python/beatthestreak2/beatthestreak/beatthestreak/tests/testNPSimulation.py'
S'beatthestreak.tests.testNPSimulation'
p109
S'TestNPSimulation.test__get_min_pa_range'
tp110
sI88
(S'/Users/Dima/faiProgramming/Python/beatthestreak2/beatthestreak/beatthestreak/tests/testNPSimulation.py'
g109
S'TestNPSimulation.test_bat_years_ms'
tp111
sI89
(S'/Users/Dima/faiProgramming/Python/beatthestreak2/beatthestreak/beatthestreak/tests/testNPSimulation.py'
g109
S'TestNPSimulation.test_calc_and_get_min_bat_ave'
tp112
sI90
(S'/Users/Dima/faiProgramming/Python/beatthestreak2/beatthestreak/beatthestreak/tests/testNPSimulation.py'
g109
S'TestNPSimulation.test_get_year'
tp113
sI91
(S'/Users/Dima/faiProgramming/Python/beatthestreak2/beatthestreak/beatthestreak/tests/testNPSimulation.py'
g109
S'TestNPSimulation.test_mass_simulate'
tp114
sI92
(S'/Users/Dima/faiProgramming/Python/beatthestreak2/beatthestreak/beatthestreak/tests/testNPSimulation.py'
g109
S'TestNPSimulation.test_setup'
tp115
sI93
(S'/Users/Dima/faiProgramming/Python/beatthestreak2/beatthestreak/beatthestreak/tests/testNPSimulation.py'
g109
S'TestNPSimulation.test_sim_next_day_with_double_down'
tp116
sI94
(S'/Users/Dima/faiProgramming/Python/beatthestreak2/beatthestreak/beatthestreak/tests/testNPSimulation.py'
g109
S'TestNPSimulation.test_sim_next_day_without_double_down'
tp117
sI95
(S'/Users/Dima/faiProgramming/Python/beatthestreak2/beatthestreak/beatthestreak/tests/testNPSimulation.py'
g109
S'TestNPSimulation.test_simulate'
tp118
sI96
(S'/Users/Dima/faiProgramming/Python/beatthestreak2/beatthestreak/beatthestreak/tests/testNPSimulation.py'
g109
S'TestNPSimulation.test_start_date_in_init'
tp119
sI97
(S'/Users/Dima/faiProgramming/Python/beatthestreak2/beatthestreak/beatthestreak/tests/testPlayer.py'
S'beatthestreak.tests.testPlayer'
p120
S'testPlayer.test__repr__and__str__'
tp121
sI98
(S'/Users/Dima/faiProgramming/Python/beatthestreak2/beatthestreak/beatthestreak/tests/testPlayer.py'
g120
S'testPlayer.test_eq__'
tp122
sI99
(S'/Users/Dima/faiProgramming/Python/beatthestreak2/beatthestreak/beatthestreak/tests/testPlayer.py'
g120
S'testPlayer.test_get_and_set_lahman_id'
tp123
sI100
(S'/Users/Dima/faiProgramming/Python/beatthestreak2/beatthestreak/beatthestreak/tests/testPlayer.py'
g120
S'testPlayer.test_get_and_set_retrosheet_id_and_init'
tp124
sI101
(S'/Users/Dima/faiProgramming/Python/beatthestreak2/beatthestreak/beatthestreak/tests/testPlayer.py'
g120
S'testPlayer.test_get_bat_ave'
tp125
sI102
(S'/Users/Dima/faiProgramming/Python/beatthestreak2/beatthestreak/beatthestreak/tests/testPlayer.py'
g120
S'testPlayer.test_get_name'
tp126
sI103
(S'/Users/Dima/faiProgramming/Python/beatthestreak2/beatthestreak/beatthestreak/tests/testResearcher.py'
S'beatthestreak.tests.testResearcher'
p127
S'TestResearcher.test_boxscore_buffer'
tp128
sI104
(S'/Users/Dima/faiProgramming/Python/beatthestreak2/beatthestreak/beatthestreak/tests/testResearcher.py'
g127
S'TestResearcher.test_check_date'
tp129
sI105
(S'/Users/Dima/faiProgramming/Python/beatthestreak2/beatthestreak/beatthestreak/tests/testResearcher.py'
g127
S'TestResearcher.test_create_player_hit_info_csv'
tp130
sI106
(S'/Users/Dima/faiProgramming/Python/beatthestreak2/beatthestreak/beatthestreak/tests/testResearcher.py'
g127
S'TestResearcher.test_did_get_hit'
tp131
sI107
(S'/Users/Dima/faiProgramming/Python/beatthestreak2/beatthestreak/beatthestreak/tests/testResearcher.py'
g127
S'TestResearcher.test_did_start'
tp132
sI108
(S'/Users/Dima/faiProgramming/Python/beatthestreak2/beatthestreak/beatthestreak/tests/testResearcher.py'
g127
S'TestResearcher.test_find_home_team'
tp133
sI109
(S'/Users/Dima/faiProgramming/Python/beatthestreak2/beatthestreak/beatthestreak/tests/testResearcher.py'
g127
S'TestResearcher.test_get_closing_day'
tp134
sI110
(S'/Users/Dima/faiProgramming/Python/beatthestreak2/beatthestreak/beatthestreak/tests/testResearcher.py'
g127
S'TestResearcher.test_get_hit_info'
tp135
sI111
(S'/Users/Dima/faiProgramming/Python/beatthestreak2/beatthestreak/beatthestreak/tests/testResearcher.py'
g127
S'TestResearcher.test_get_opening_day'
tp136
sI112
(S'/Users/Dima/faiProgramming/Python/beatthestreak2/beatthestreak/beatthestreak/tests/testResearcher.py'
g127
S'TestResearcher.test_get_participants_superset'
tp137
sI113
(S'/Users/Dima/faiProgramming/Python/beatthestreak2/beatthestreak/beatthestreak/tests/testResearcher.py'
g127
S'TestResearcher.test_get_participants_superset_buffer'
tp138
sI114
(S'/Users/Dima/faiProgramming/Python/beatthestreak2/beatthestreak/beatthestreak/tests/testResearcher.py'
g127
S'TestResearcher.test_get_sus_Games_dict'
tp139
sI115
(S'/Users/Dima/faiProgramming/Python/beatthestreak2/beatthestreak/beatthestreak/tests/testResearcher.py'
g127
S'TestResearcher.test_is_game_suspended'
tp140
sI116
(S'/Users/Dima/faiProgramming/Python/beatthestreak2/beatthestreak/beatthestreak/tests/testResearcher.py'
g127
S'TestResearcher.test_is_suspended_game_valid'
tp141
sI117
(S'/Users/Dima/faiProgramming/Python/beatthestreak2/beatthestreak/beatthestreak/tests/testResearcher.py'
g127
S'TestResearcher.test_list_of_games_buffer'
tp142
sI118
(S'/Users/Dima/faiProgramming/Python/beatthestreak2/beatthestreak/beatthestreak/tests/testResearcher.py'
g127
S'TestResearcher.test_name_from_lahman_id'
tp143
sI119
(S'/Users/Dima/faiProgramming/Python/beatthestreak2/beatthestreak/beatthestreak/tests/testResearcher.py'
g127
S'TestResearcher.test_num_at_bats'
tp144
sI120
(S'/Users/Dima/faiProgramming/Python/beatthestreak2/beatthestreak/beatthestreak/tests/testResearcher.py'
g127
S'TestResearcher.test_num_plate_appearances'
tp145
sI121
(S'/Users/Dima/faiProgramming/Python/beatthestreak2/beatthestreak/beatthestreak/tests/testResearcher.py'
g127
S'TestResearcher.test_player_info_buffer'
tp146
sI122
(S'/Users/Dima/faiProgramming/Python/beatthestreak2/beatthestreak/beatthestreak/tests/testRetrosheet.py'
S'beatthestreak.tests.testRetrosheet'
p147
S'TestRetrosheet.test_clean_used_files'
tp148
sI123
(S'/Users/Dima/faiProgramming/Python/beatthestreak2/beatthestreak/beatthestreak/tests/testRetrosheet.py'
g147
S'TestRetrosheet.test_download'
tp149
sI124
(S'/Users/Dima/faiProgramming/Python/beatthestreak2/beatthestreak/beatthestreak/tests/testRetrosheet.py'
g147
S'TestRetrosheet.test_gen_boxscores'
tp150
sI125
(S'/Users/Dima/faiProgramming/Python/beatthestreak2/beatthestreak/beatthestreak/tests/testRetrosheet.py'
g147
S'TestRetrosheet.test_gen_team_abbrevs'
tp151
sI126
(S'/Users/Dima/faiProgramming/Python/beatthestreak2/beatthestreak/beatthestreak/tests/testRetrosheet.py'
g147
S'TestRetrosheet.test_unzip'
tp152
sI127
(S'/Users/Dima/faiProgramming/Python/beatthestreak2/beatthestreak/beatthestreak/tests/testUtilities.py'
S'beatthestreak.tests.testUtilities'
p153
S'TestUtilities.test_clean_retrosheet_files'
tp154
sI128
(S'/Users/Dima/faiProgramming/Python/beatthestreak2/beatthestreak/beatthestreak/tests/testUtilities.py'
g153
S'TestUtilities.test_convert_date'
tp155
sI129
(S'/Users/Dima/faiProgramming/Python/beatthestreak2/beatthestreak/beatthestreak/tests/testUtilities.py'
g153
S'TestUtilities.test_ensure_boxscore_files_exist'
tp156
sI130
(S'/Users/Dima/faiProgramming/Python/beatthestreak2/beatthestreak/beatthestreak/tests/testUtilities.py'
g153
S'TestUtilities.test_ensure_gamelog_files_exist'
tp157
ss.